; Function Attrs: mustprogress uwtable
define internal fastcc noundef zeroext i1 @_ZN9benchmark12_GLOBAL__N_110ParseInt32ERKNSt7__cxx1112basic_stringIcSt11char_traitsIcESaIcEEEPKcPi(ptr noundef nonnull readonly align 8 captures(none) dereferenceable(32) %0, ptr noundef nonnull %1, ptr noundef writeonly captures(none) %2) unnamed_addr #3 {
  %4 = alloca ptr, align 8
  call void @llvm.lifetime.start.p0(i64 8, ptr nonnull %4) #21
  store ptr null, ptr %4, align 8, !tbaa !23
  %5 = call i64 @strtol(ptr noundef nonnull %1, ptr noundef nonnull %4, i32 noundef 10) #21
  %6 = load ptr, ptr %4, align 8, !tbaa !23
  %7 = load i8, ptr %6, align 1, !tbaa !13
  %.not = icmp eq i8 %7, 0
  br i1 %.not, label %18, label %8

8:                                                ; preds = %3
  %9 = load ptr, ptr %0, align 8, !tbaa !3
  %10 = getelementptr inbounds nuw i8, ptr %0, i64 8
  %11 = load i64, ptr %10, align 8, !tbaa !14
  %12 = tail call noundef nonnull align 8 dereferenceable(8) ptr @_ZSt16__ostream_insertIcSt11char_traitsIcEERSt13basic_ostreamIT_T0_ES6_PKS3_l(ptr noundef nonnull align 8 dereferenceable(8) @_ZSt4cerr, ptr noundef %9, i64 noundef %11)
  %13 = tail call noundef nonnull align 8 dereferenceable(8) ptr @_ZSt16__ostream_insertIcSt11char_traitsIcEERSt13basic_ostreamIT_T0_ES6_PKS3_l(ptr noundef nonnull align 8 dereferenceable(8) %12, ptr noundef nonnull @.str.7, i64 noundef 37)
  %14 = tail call noundef nonnull align 8 dereferenceable(8) ptr @_ZSt16__ostream_insertIcSt11char_traitsIcEERSt13basic_ostreamIT_T0_ES6_PKS3_l(ptr noundef nonnull align 8 dereferenceable(8) %12, ptr noundef nonnull @.str.8, i64 noundef 24)
  %15 = tail call noundef i64 @strlen(ptr noundef nonnull dereferenceable(1) %1) #21
  %16 = tail call noundef nonnull align 8 dereferenceable(8) ptr @_ZSt16__ostream_insertIcSt11char_traitsIcEERSt13basic_ostreamIT_T0_ES6_PKS3_l(ptr noundef nonnull align 8 dereferenceable(8) %12, ptr noundef nonnull %1, i64 noundef %15)
  %17 = tail call noundef nonnull align 8 dereferenceable(8) ptr @_ZSt16__ostream_insertIcSt11char_traitsIcEERSt13basic_ostreamIT_T0_ES6_PKS3_l(ptr noundef nonnull align 8 dereferenceable(8) %12, ptr noundef nonnull @.str.9, i64 noundef 3)
  br label %33

18:                                               ; preds = %3
  %19 = add i64 %5, 2147483648
  %.not13 = icmp ult i64 %19, 4294967296
  br i1 %.not13, label %31, label %20

20:                                               ; preds = %18
  %21 = load ptr, ptr %0, align 8, !tbaa !3
  %22 = getelementptr inbounds nuw i8, ptr %0, i64 8
  %23 = load i64, ptr %22, align 8, !tbaa !14
  %24 = tail call noundef nonnull align 8 dereferenceable(8) ptr @_ZSt16__ostream_insertIcSt11char_traitsIcEERSt13basic_ostreamIT_T0_ES6_PKS3_l(ptr noundef nonnull align 8 dereferenceable(8) @_ZSt4cerr, ptr noundef %21, i64 noundef %23)
  %25 = tail call noundef nonnull align 8 dereferenceable(8) ptr @_ZSt16__ostream_insertIcSt11char_traitsIcEERSt13basic_ostreamIT_T0_ES6_PKS3_l(ptr noundef nonnull align 8 dereferenceable(8) %24, ptr noundef nonnull @.str.7, i64 noundef 37)
  %26 = tail call noundef nonnull align 8 dereferenceable(8) ptr @_ZSt16__ostream_insertIcSt11char_traitsIcEERSt13basic_ostreamIT_T0_ES6_PKS3_l(ptr noundef nonnull align 8 dereferenceable(8) %24, ptr noundef nonnull @.str.8, i64 noundef 24)
  %27 = tail call noundef i64 @strlen(ptr noundef nonnull dereferenceable(1) %1) #21
  %28 = tail call noundef nonnull align 8 dereferenceable(8) ptr @_ZSt16__ostream_insertIcSt11char_traitsIcEERSt13basic_ostreamIT_T0_ES6_PKS3_l(ptr noundef nonnull align 8 dereferenceable(8) %24, ptr noundef nonnull %1, i64 noundef %27)
  %29 = tail call noundef nonnull align 8 dereferenceable(8) ptr @_ZSt16__ostream_insertIcSt11char_traitsIcEERSt13basic_ostreamIT_T0_ES6_PKS3_l(ptr noundef nonnull align 8 dereferenceable(8) %24, ptr noundef nonnull @.str.10, i64 noundef 3)
  %30 = tail call noundef nonnull align 8 dereferenceable(8) ptr @_ZSt16__ostream_insertIcSt11char_traitsIcEERSt13basic_ostreamIT_T0_ES6_PKS3_l(ptr noundef nonnull align 8 dereferenceable(8) %24, ptr noundef nonnull @.str.11, i64 noundef 17)
  br label %33

31:                                               ; preds = %18
  %32 = trunc i64 %5 to i32
  store i32 %32, ptr %2, align 4, !tbaa !18
  br label %33

33:                                               ; preds = %20, %31, %8
  %.0 = phi i1 [ false, %8 ], [ false, %20 ], [ true, %31 ]
  call void @llvm.lifetime.end.p0(i64 8, ptr nonnull %4) #21
  ret i1 %.0
}